target datalayout = "e-m:e-p270:32:32-p271:32:32-p272:64:64-i64:64-i128:128-f80:128-n8:16:32:64-S128"
target triple = "x86_64-pc-linux-gnu"

@.str = private unnamed_addr constant [9 x i8] c"%02d.cnf\00", align 1

; Function Attrs: nounwind uwtable
define void @Cnf_SplitCnfCleanup(i32 noundef %0) #0 {
  %2 = alloca i32, align 4
  %3 = alloca [100 x i8], align 16
  %4 = alloca i32, align 4
  store i32 %0, ptr %2, align 4, !tbaa !3
  call void @llvm.lifetime.start.p0(i64 100, ptr %3) #12
  call void @llvm.lifetime.start.p0(i64 4, ptr %4) #12
  store i32 0, ptr %4, align 4, !tbaa !3
  br label %5

5:                                                ; preds = %15, %1
  %6 = load i32, ptr %4, align 4, !tbaa !3
  %7 = load i32, ptr %2, align 4, !tbaa !3
  %8 = icmp slt i32 %6, %7
  br i1 %8, label %9, label %18

9:                                                ; preds = %5
  %10 = getelementptr inbounds [100 x i8], ptr %3, i64 0, i64 0
  %11 = load i32, ptr %4, align 4, !tbaa !3
  %12 = call i32 (ptr, ptr, ...) @sprintf(ptr noundef %10, ptr noundef @.str, i32 noundef %11) #12
  %13 = getelementptr inbounds [100 x i8], ptr %3, i64 0, i64 0
  %14 = call i32 @unlink(ptr noundef %13) #12
  br label %15

15:                                               ; preds = %9
  %16 = load i32, ptr %4, align 4, !tbaa !3
  %17 = add nsw i32 %16, 1
  store i32 %17, ptr %4, align 4, !tbaa !3
  br label %5, !llvm.loop !142

18:                                               ; preds = %5
  call void @llvm.lifetime.end.p0(i64 4, ptr %4) #12
  call void @llvm.lifetime.end.p0(i64 100, ptr %3) #12
  ret void
}