; Function Attrs: nofree nounwind uwtable
define void @Cnf_SplitCnfCleanup(i32 noundef %0) local_unnamed_addr #15 {
  %2 = alloca [100 x i8], align 16
  call void @llvm.lifetime.start.p0(i64 100, ptr nonnull %2) #22
  %3 = icmp sgt i32 %0, 0
  br i1 %3, label %.lr.ph, label %._crit_edge

.lr.ph:                                           ; preds = %1, %.lr.ph
  %.04 = phi i32 [ %6, %.lr.ph ], [ 0, %1 ]
  %4 = call i32 (ptr, ptr, ...) @sprintf(ptr noundef nonnull dereferenceable(1) %2, ptr noundef nonnull dereferenceable(1) @.str, i32 noundef %.04) #22
  %5 = call i32 @unlink(ptr noundef nonnull %2) #22
  %6 = add nuw nsw i32 %.04, 1
  %exitcond.not = icmp eq i32 %6, %0
  br i1 %exitcond.not, label %._crit_edge, label %.lr.ph, !llvm.loop !126

._crit_edge:                                      ; preds = %.lr.ph, %1
  call void @llvm.lifetime.end.p0(i64 100, ptr nonnull %2) #22
  ret void
}